(lp0
(lp1
S'Project'
p2
aS'Bug'
p3
aS'LineNum'
p4
aS'HitsTotal'
p5
aS'HitsNeg'
p6
aS'HitsPos'
p7
aS'CoveringPassingTests'
p8
aS'NonCoveringPassingTests'
p9
aS'CoveringFailingTests'
p10
aS'NonCoveringFailingTests'
p11
aa(lp12
S'Math'
p13
aS'2'
p14
aS'45'
p15
aS'32'
p16
aS'2'
p17
aS'30'
p18
aI0
aI0
aI3
aI0
aI0
aI0
aI0
aI0
aI0
aI0
aI0
aI0
aa(lp19
g13
ag14
aS'47'
p20
aS'32'
p21
aS'2'
p22
aS'30'
p23
aI0
aI0
aI3
aI0
aI0
aI0
aI0
aI0
aI0
aI0
aI0
aI0
aa(lp24
g13
ag14
aS'63'
p25
aS'32'
p26
aS'2'
p27
aS'30'
p28
aI0
aI0
aI3
aI0
aI0
aI0
aI0
aI0
aI0
aI0
aI0
aI0
aa(lp29
g13
ag14
aS'64'
p30
aS'27'
p31
aS'2'
p32
aS'25'
p33
aI0
aI0
aI3
aI0
aI0
aI0
aI0
aI0
aI0
aI0
aI0
aI0
aa(lp34
g13
ag14
aS'84'
p35
aS'32'
p36
aS'2'
p37
aS'30'
p38
aI0
aI0
aI3
aI0
aI0
aI0
aI0
aI0
aI0
aI0
aI0
aI0
aa(lp39
g13
ag14
aS'86'
p40
aS'32'
p41
aS'2'
p42
aS'30'
p43
aI0
aI0
aI3
aI0
aI0
aI0
aI0
aI0
aI0
aI0
aI0
aI0
aa(lp44
g13
ag14
aS'87'
p45
aS'1'
p46
aS'0'
p47
aS'1'
p48
aI0
aI0
aI0
aI3
aI0
aI0
aI0
aI0
aI0
aI0
aI0
aI0
aa(lp49
g13
ag14
aS'90'
p50
aS'31'
p51
aS'2'
p52
aS'29'
p53
aI0
aI0
aI3
aI0
aI0
aI0
aI0
aI0
aI0
aI0
aI0
aI0
aa(lp54
g13
ag14
aS'91'
p55
aS'1'
p56
aS'0'
p57
ag48
aI0
aI0
aI0
aI3
aI0
aI0
aI0
aI0
aI0
aI0
aI0
aI0
aa(lp58
g13
ag14
aS'94'
p59
aS'30'
p60
aS'2'
p61
aS'28'
p62
aI0
aI0
aI3
aI0
aI0
aI0
aI0
aI0
aI0
aI0
aI0
aI0
aa(lp63
g13
ag14
aS'95'
p64
aS'1'
p65
aS'0'
p66
ag48
aI0
aI0
aI0
aI3
aI0
aI0
aI0
aI0
aI0
aI0
aI0
aI0
aa(lp67
g13
ag14
aS'99'
p68
aS'29'
p69
aS'2'
p70
aS'27'
p71
aI0
aI0
aI3
aI0
aI0
aI0
aI0
aI0
aI0
aI0
aI0
aI0
aa(lp72
g13
ag14
aS'100'
p73
aS'1'
p74
aS'0'
p75
ag48
aI0
aI0
aI0
aI3
aI0
aI0
aI0
aI0
aI0
aI0
aI0
aI0
aa(lp76
g13
ag14
aS'103'
p77
aS'28'
p78
aS'2'
p79
aS'26'
p80
aI0
aI0
aI3
aI0
aI0
aI0
aI0
aI0
aI0
aI0
aI0
aI0
aa(lp81
g13
ag14
aS'104'
p82
aS'1'
p83
aS'0'
p84
ag48
aI0
aI0
aI0
aI3
aI0
aI0
aI0
aI0
aI0
aI0
aI0
aI0
aa(lp85
g13
ag14
aS'108'
p86
aS'27'
p87
aS'2'
p88
aS'25'
p89
aI0
aI0
aI3
aI0
aI0
aI0
aI0
aI0
aI0
aI0
aI0
aI0
aa(lp90
g13
ag14
aS'109'
p91
aS'27'
p92
aS'2'
p93
aS'25'
p94
aI0
aI0
aI3
aI0
aI0
aI0
aI0
aI0
aI0
aI0
aI0
aI0
aa(lp95
g13
ag14
aS'110'
p96
aS'27'
p97
aS'2'
p98
aS'25'
p99
aI0
aI0
aI3
aI0
aI0
aI0
aI0
aI0
aI0
aI0
aI0
aI0
aa(lp100
g13
ag14
aS'111'
p101
aS'27'
p102
aS'2'
p103
aS'25'
p104
aI0
aI0
aI3
aI0
aI0
aI0
aI0
aI0
aI0
aI0
aI0
aI0
aa(lp105
g13
ag14
aS'117'
p106
aS'1208'
p107
aS'0'
p108
aS'1208'
p109
aI0
aI0
aI0
aI3
aI0
aI0
aI0
aI0
aI0
aI0
aI0
aI0
aa(lp110
g13
ag14
aS'118'
p111
aS'1208'
p112
aS'0'
p113
aS'1208'
p114
aI0
aI0
aI0
aI3
aI0
aI0
aI0
aI0
aI0
aI0
aI0
aI0
aa(lp115
g13
ag14
aS'119'
p116
aS'9'
p117
aS'0'
p118
aS'9'
p119
aI0
aI0
aI0
aI3
aI0
aI0
aI0
aI0
aI0
aI0
aI0
aI0
aa(lp120
g13
ag14
aS'120'
p121
aS'1199'
p122
aS'0'
p123
aS'1199'
p124
aI0
aI0
aI0
aI3
aI0
aI0
aI0
aI0
aI0
aI0
aI0
aI0
aa(lp125
g13
ag14
aS'121'
p126
aS'13'
p127
aS'0'
p128
aS'13'
p129
aI0
aI0
aI0
aI3
aI0
aI0
aI0
aI0
aI0
aI0
aI0
aI0
aa(lp130
g13
ag14
aS'123'
p131
aS'1186'
p132
aS'0'
p133
aS'1186'
p134
aI0
aI0
aI0
aI3
aI0
aI0
aI0
aI0
aI0
aI0
aI0
aI0
aa(lp135
g13
ag14
aS'126'
p136
aS'1208'
p137
aS'0'
p138
aS'1208'
p139
aI0
aI0
aI0
aI3
aI0
aI0
aI0
aI0
aI0
aI0
aI0
aI0
aa(lp140
g13
ag14
aS'139'
p141
aS'7325'
p142
aS'0'
p143
aS'7325'
p144
aI0
aI0
aI0
aI3
aI0
aI0
aI0
aI0
aI0
aI0
aI0
aI0
aa(lp145
g13
ag14
aS'152'
p146
aS'7325'
p147
aS'0'
p148
aS'7325'
p149
aI0
aI0
aI0
aI3
aI0
aI0
aI0
aI0
aI0
aI0
aI0
aI0
aa(lp150
g13
ag14
aS'161'
p151
aS'3076'
p152
aS'4'
p153
aS'3072'
p154
aI0
aI0
aI3
aI0
aI0
aI0
aI0
aI0
aI0
aI0
aI0
aI0
aa(lp155
g13
ag14
aS'170'
p156
aS'2053'
p157
aS'3'
p158
aS'2050'
p159
aI0
aI0
aI3
aI0
aI0
aI0
aI0
aI0
aI0
aI0
aI0
aI0
aa(lp160
g13
ag14
aS'179'
p161
aS'3076'
p162
aS'4'
p163
aS'3072'
p164
aI0
aI0
aI3
aI0
aI0
aI0
aI0
aI0
aI0
aI0
aI0
aI0
aa(lp165
g13
ag14
aS'191'
p166
aS'7325'
p167
aS'0'
p168
aS'7325'
p169
aI0
aI0
aI0
aI3
aI0
aI0
aI0
aI0
aI0
aI0
aI0
aI0
aa(lp170
g13
ag14
aS'198'
p171
aS'6080'
p172
aS'0'
p173
aS'6080'
p174
aI0
aI0
aI0
aI3
aI0
aI0
aI0
aI0
aI0
aI0
aI0
aI0
aa(lp175
g13
ag14
aS'199'
p176
aS'6080'
p177
aS'0'
p178
aS'6080'
p179
aI0
aI0
aI0
aI3
aI0
aI0
aI0
aI0
aI0
aI0
aI0
aI0
aa(lp180
g13
ag14
aS'200'
p181
aS'14'
p182
aS'0'
p183
aS'14'
p184
aI0
aI0
aI0
aI3
aI0
aI0
aI0
aI0
aI0
aI0
aI0
aI0
aa(lp185
g13
ag14
aS'202'
p186
aS'6066'
p187
aS'0'
p188
aS'6066'
p189
aI0
aI0
aI0
aI3
aI0
aI0
aI0
aI0
aI0
aI0
aI0
aI0
aa(lp190
g13
ag14
aS'203'
p191
aS'6066'
p192
aS'0'
p193
aS'6066'
p194
aI0
aI0
aI0
aI3
aI0
aI0
aI0
aI0
aI0
aI0
aI0
aI0
aa(lp195
g13
ag14
aS'204'
p196
aS'6066'
p197
aS'0'
p198
aS'6066'
p199
aI0
aI0
aI0
aI3
aI0
aI0
aI0
aI0
aI0
aI0
aI0
aI0
aa(lp200
g13
ag14
aS'206'
p201
aS'6066'
p202
aS'0'
p203
aS'6066'
p204
aI0
aI0
aI0
aI3
aI0
aI0
aI0
aI0
aI0
aI0
aI0
aI0
aa(lp205
g13
ag14
aS'209'
p206
aS'6066'
p207
aS'0'
p208
aS'6066'
p209
aI0
aI0
aI0
aI3
aI0
aI0
aI0
aI0
aI0
aI0
aI0
aI0
aa(lp210
g13
ag14
aS'211'
p211
aS'6066'
p212
aS'0'
p213
aS'6066'
p214
aI0
aI0
aI0
aI3
aI0
aI0
aI0
aI0
aI0
aI0
aI0
aI0
aa(lp215
g13
ag14
aS'214'
p216
aS'6080'
p217
aS'0'
p218
aS'6080'
p219
aI0
aI0
aI0
aI3
aI0
aI0
aI0
aI0
aI0
aI0
aI0
aI0
aa(lp220
g13
ag14
aS'227'
p221
aS'37'
p222
aS'0'
p223
aS'37'
p224
aI0
aI0
aI0
aI3
aI0
aI0
aI0
aI0
aI0
aI0
aI0
aI0
aa(lp225
g13
ag14
aS'228'
p226
aS'37'
p227
aS'0'
p228
aS'37'
p229
aI0
aI0
aI0
aI3
aI0
aI0
aI0
aI0
aI0
aI0
aI0
aI0
aa(lp230
g13
ag14
aS'229'
p231
aS'3'
p232
aS'0'
p233
aS'3'
p234
aI0
aI0
aI0
aI3
aI0
aI0
aI0
aI0
aI0
aI0
aI0
aI0
aa(lp235
g13
ag14
aS'230'
p236
aS'34'
p237
aS'0'
p238
aS'34'
p239
aI0
aI0
aI0
aI3
aI0
aI0
aI0
aI0
aI0
aI0
aI0
aI0
aa(lp240
g13
ag14
aS'231'
p241
aS'0'
p242
aS'0'
p243
aS'0'
p244
aI0
aI0
aI0
aI3
aI0
aI0
aI0
aI0
aI0
aI0
aI0
aI0
aa(lp245
g13
ag14
aS'233'
p246
aS'34'
p247
aS'0'
p248
aS'34'
p249
aI0
aI0
aI0
aI3
aI0
aI0
aI0
aI0
aI0
aI0
aI0
aI0
aa(lp250
g13
ag14
aS'236'
p251
aS'37'
p252
aS'0'
p253
aS'37'
p254
aI0
aI0
aI0
aI3
aI0
aI0
aI0
aI0
aI0
aI0
aI0
aI0
aa(lp255
g13
ag14
aS'253'
p256
aS'1220'
p257
aS'0'
p258
aS'1220'
p259
aI0
aI0
aI0
aI3
aI0
aI0
aI0
aI0
aI0
aI0
aI0
aI0
aa(lp260
g13
ag14
aS'254'
p261
aS'6019'
p262
aS'0'
p263
aS'6019'
p264
aI0
aI0
aI0
aI3
aI0
aI0
aI0
aI0
aI0
aI0
aI0
aI0
aa(lp265
g13
ag14
aS'255'
p266
aS'4799'
p267
aS'0'
p268
aS'4799'
p269
aI0
aI0
aI0
aI3
aI0
aI0
aI0
aI0
aI0
aI0
aI0
aI0
aa(lp270
g13
ag14
aS'256'
p271
aS'4799'
p272
aS'0'
p273
aS'4799'
p274
aI0
aI0
aI0
aI3
aI0
aI0
aI0
aI0
aI0
aI0
aI0
aI0
aa(lp275
g13
ag14
aS'258'
p276
aS'1220'
p277
aS'0'
p278
aS'1220'
p279
aI0
aI0
aI0
aI3
aI0
aI0
aI0
aI0
aI0
aI0
aI0
aI0
aa(lp280
g13
ag14
aS'268'
p281
aS'1019'
p282
aS'1'
p283
aS'1018'
p284
aI0
aI0
aI3
aI0
aI0
aI0
aI0
aI0
aI0
aI0
aI0
aI0
aa(lp285
g13
ag14
aS'279'
p286
aS'1019'
p287
aS'1'
p288
aS'1018'
p289
aI0
aI0
aI3
aI0
aI0
aI0
aI0
aI0
aI0
aI0
aI0
aI0
aa(lp290
g13
ag14
aS'280'
p291
aS'8'
p292
aS'1'
p293
aS'7'
p294
aI0
aI0
aI3
aI0
aI0
aI0
aI0
aI0
aI0
aI0
aI0
aI0
aa(lp295
g13
ag14
aS'281'
p296
aS'8'
p297
aS'1'
p298
ag294
aI0
aI0
aI3
aI0
aI0
aI0
aI0
aI0
aI0
aI0
aI0
aI0
aa(lp299
g13
ag14
aS'283'
p300
aS'1019'
p301
aS'1'
p302
aS'1018'
p303
aI0
aI0
aI3
aI0
aI0
aI0
aI0
aI0
aI0
aI0
aI0
aI0
aa(lp304
g13
ag14
aS'292'
p305
aS'8'
p306
aS'1'
p307
ag294
aI0
aI0
aI3
aI0
aI0
aI0
aI0
aI0
aI0
aI0
aI0
aI0
aa(lp308
g13
ag14
aS'293'
p309
aS'8'
p310
aS'1'
p311
ag294
aI0
aI0
aI3
aI0
aI0
aI0
aI0
aI0
aI0
aI0
aI0
aI0
aa(lp312
g13
ag14
aS'294'
p313
aS'8'
p314
aS'1'
p315
ag294
aI0
aI0
aI3
aI0
aI0
aI0
aI0
aI0
aI0
aI0
aI0
aI0
aa(lp316
g13
ag14
aS'295'
p317
aS'8'
p318
aS'1'
p319
ag294
aI0
aI0
aI3
aI0
aI0
aI0
aI0
aI0
aI0
aI0
aI0
aI0
aa(lp320
g13
ag14
aS'308'
p321
aS'1025'
p322
aS'1'
p323
aS'1024'
p324
aI0
aI0
aI3
aI0
aI0
aI0
aI0
aI0
aI0
aI0
aI0
aI0
aa(lp325
g13
ag14
aS'321'
p326
aS'1023'
p327
aS'1'
p328
aS'1022'
p329
aI0
aI0
aI3
aI0
aI0
aI0
aI0
aI0
aI0
aI0
aI0
aI0
aa(lp330
g13
ag14
aS'332'
p331
aS'0'
p332
aS'0'
p333
ag244
aI0
aI0
aI0
aI3
aI0
aI0
aI0
aI0
aI0
aI0
aI0
aI0
aa.